target datalayout = "e-m:e-p270:32:32-p271:32:32-p272:64:64-i64:64-i128:128-f80:128-n8:16:32:64-S128"
target triple = "x86_64-pc-linux-gnu"

%struct.pmi2_job_info = type { %struct.slurm_step_id_msg, i32, i32, i32, i32, i32, ptr, i32, i32, ptr, ptr, ptr, ptr, ptr, ptr, ptr, ptr }
%struct.slurm_step_id_msg = type { i64, i32, i32, i32 }

@plugin_type = external constant [0 x i8], align 1
@job_info = external global %struct.pmi2_job_info, align 8
@.str.45 = private unnamed_addr constant [35 x i8] c"%s: %s: mpi/pmi2: in _handle_abort\00", align 1
@__func__._handle_abort = private unnamed_addr constant [14 x i8] c"_handle_abort\00", align 1
@.str.46 = private unnamed_addr constant [36 x i8] c"%s: %s: mpi/pmi2: out _handle_abort\00", align 1

; Function Attrs: nounwind uwtable
define internal i32 @_handle_abort(i32 noundef %0, i32 noundef %1, ptr noundef %2) #0 {
  %4 = alloca i32, align 4
  %5 = alloca i32, align 4
  %6 = alloca ptr, align 8
  store i32 %0, ptr %4, align 4
  store i32 %1, ptr %5, align 4
  store ptr %2, ptr %6, align 8
  br label %7

7:                                                ; preds = %3
  br label %8

8:                                                ; preds = %7
  %9 = call i32 @slurm_get_log_level()
  %10 = icmp sge i32 %9, 7
  br i1 %10, label %11, label %12

11:                                               ; preds = %8
  call void (i32, ptr, ...) @slurm_log_var(i32 noundef 7, ptr noundef @.str.45, ptr noundef @plugin_type, ptr noundef @__func__._handle_abort)
  br label %12

12:                                               ; preds = %11, %8
  br label %13

13:                                               ; preds = %12
  br label %14

14:                                               ; preds = %13
  %15 = load i32, ptr getelementptr inbounds nuw (%struct.slurm_step_id_msg, ptr @job_info, i32 0, i32 1), align 8
  %16 = load i32, ptr getelementptr inbounds nuw (%struct.slurm_step_id_msg, ptr @job_info, i32 0, i32 3), align 8
  %17 = call i32 @slurm_kill_job_step(i32 noundef %15, i32 noundef %16, i16 noundef zeroext 9, i16 noundef zeroext 0)
  br label %18

18:                                               ; preds = %14
  br label %19

19:                                               ; preds = %18
  %20 = call i32 @slurm_get_log_level()
  %21 = icmp sge i32 %20, 7
  br i1 %21, label %22, label %23

22:                                               ; preds = %19
  call void (i32, ptr, ...) @slurm_log_var(i32 noundef 7, ptr noundef @.str.46, ptr noundef @plugin_type, ptr noundef @__func__._handle_abort)
  br label %23

23:                                               ; preds = %22, %19
  br label %24

24:                                               ; preds = %23
  br label %25

25:                                               ; preds = %24
  ret i32 0
}