; Function Attrs: nounwind uwtable
define internal noundef i32 @_handle_abort(i32 %0, i32 %1, ptr readnone captures(none) %2) #0 {
  %4 = tail call i32 @slurm_get_log_level() #8
  %5 = icmp sgt i32 %4, 6
  br i1 %5, label %6, label %7

6:                                                ; preds = %3
  tail call void (i32, ptr, ...) @slurm_log_var(i32 noundef 7, ptr noundef nonnull @.str.45, ptr noundef nonnull @plugin_type, ptr noundef nonnull @__func__._handle_abort) #8
  br label %7

7:                                                ; preds = %6, %3
  %8 = load i32, ptr getelementptr inbounds nuw (i8, ptr @job_info, i64 8), align 8
  %9 = load i32, ptr getelementptr inbounds nuw (i8, ptr @job_info, i64 16), align 8
  %10 = tail call i32 @slurm_kill_job_step(i32 noundef %8, i32 noundef %9, i16 noundef zeroext 9, i16 noundef zeroext 0) #8
  %11 = tail call i32 @slurm_get_log_level() #8
  %12 = icmp sgt i32 %11, 6
  br i1 %12, label %13, label %14

13:                                               ; preds = %7
  tail call void (i32, ptr, ...) @slurm_log_var(i32 noundef 7, ptr noundef nonnull @.str.46, ptr noundef nonnull @plugin_type, ptr noundef nonnull @__func__._handle_abort) #8
  br label %14

14:                                               ; preds = %13, %7
  ret i32 0
}